target datalayout = "e-m:e-p270:32:32-p271:32:32-p272:64:64-i64:64-i128:128-f80:128-n8:16:32:64-S128"
target triple = "x86_64-pc-linux-gnu"

%struct.pointf_s = type { double, double }
%struct.GVJ_s = type { ptr, ptr, ptr, ptr, ptr, ptr, i32, ptr, ptr, ptr, ptr, i64, i64, ptr, i32, %struct.gvplugin_active_render_s, %struct.gvplugin_active_device_s, %struct.gvplugin_active_loadimage_t, ptr, %struct.pointf_s, i8, ptr, i32, ptr, i8, ptr, i32, i32, i32, %struct.point, %struct.point, %struct.point, %struct.point, %struct.point, i32, %struct.boxf, %struct.pointf_s, %struct.boxf, %struct.boxf, %struct.pointf_s, %struct.pointf_s, double, i32, %struct.pointf_s, %struct.boxf, %struct.pointf_s, %struct.pointf_s, i32, i32, %struct.box, %struct.box, %struct.pointf_s, %struct.pointf_s, %struct.pointf_s, i8, i8, i8, i8, i8, i8, %struct.pointf_s, %struct.pointf_s, ptr, ptr, ptr, ptr, ptr, ptr, i64, ptr }
%struct.gvplugin_active_render_s = type { ptr, i32, ptr, ptr }
%struct.gvplugin_active_device_s = type { ptr, i32, ptr, ptr }
%struct.gvplugin_active_loadimage_t = type { ptr, i32, ptr }
%struct.point = type { i32, i32 }
%struct.boxf = type { %struct.pointf_s, %struct.pointf_s }
%struct.box = type { %struct.point, %struct.point }
%struct.obj_state_s = type { ptr, i32, %union.anon, i32, %struct.color_s, %struct.color_s, %struct.color_s, i32, double, i32, i32, double, ptr, double, double, double, ptr, ptr, ptr, ptr, ptr, ptr, ptr, ptr, ptr, ptr, ptr, ptr, ptr, ptr, ptr, ptr, ptr, i16, i32, i64, ptr, i64, ptr, ptr, i32, ptr, i32, ptr }
%union.anon = type { ptr }
%struct.color_s = type { %union.anon.0, i32 }
%union.anon.0 = type { [4 x double] }
%struct.tcldot_context_t = type { ptr, ptr }
%struct.Agobj_s = type { %struct.Agtag_s, ptr }
%struct.Agtag_s = type { i32, i64 }

@first_periphery = internal global i32 0, align 4
@.str.13 = private unnamed_addr constant [2 x i8] c"\0A\00", align 1
@.str.14 = private unnamed_addr constant [3 x i8] c"$c\00", align 1
@.str.15 = private unnamed_addr constant [3 x i8] c"\22\22\00", align 1
@.str.16 = private unnamed_addr constant [14 x i8] c"#%02x%02x%02x\00", align 1
@stderr = external global ptr, align 8
@.str.17 = private unnamed_addr constant [45 x i8] c"%s:%d: claimed unreachable code was reached\0A\00", align 1
@.str.18 = private unnamed_addr constant [126 x i8] c"generated/home/dtcxzyw/WorkSpace/Projects/compilers/llvm-opt-benchmark/bench/graphviz/graphviz/plugin/core/gvrender_core_tk.c\00", align 1
@.str.19 = private unnamed_addr constant [5 x i8] c"node\00", align 1
@.str.20 = private unnamed_addr constant [5 x i8] c"edge\00", align 1
@.str.21 = private unnamed_addr constant [6 x i8] c"graph\00", align 1
@.str.22 = private unnamed_addr constant [12 x i8] c"graph label\00", align 1
@.str.23 = private unnamed_addr constant [16 x i8] c" -tags {%d%s%p}\00", align 1
@.str.25 = private unnamed_addr constant [8 x i8] c" -fill \00", align 1
@.str.26 = private unnamed_addr constant [6 x i8] c"white\00", align 1
@.str.27 = private unnamed_addr constant [9 x i8] c" -width \00", align 1
@.str.28 = private unnamed_addr constant [11 x i8] c" -outline \00", align 1
@.str.29 = private unnamed_addr constant [9 x i8] c" -dash 5\00", align 1
@.str.30 = private unnamed_addr constant [9 x i8] c" -dash 2\00", align 1
@.str.31 = private unnamed_addr constant [17 x i8] c" create polygon \00", align 1

; Function Attrs: nounwind uwtable
define internal void @tkgen_print_tags(ptr noundef %0) #0 {
  %2 = alloca ptr, align 8
  %3 = alloca ptr, align 8
  %4 = alloca ptr, align 8
  %5 = alloca ptr, align 8
  %6 = alloca i32, align 4
  store ptr %0, ptr %2, align 8, !tbaa !3
  call void @llvm.lifetime.start.p0(i64 8, ptr %3) #6
  call void @llvm.lifetime.start.p0(i64 8, ptr %4) #6
  call void @llvm.lifetime.start.p0(i64 8, ptr %5) #6
  %7 = load ptr, ptr %2, align 8, !tbaa !3
  %8 = getelementptr inbounds nuw %struct.GVJ_s, ptr %7, i32 0, i32 4
  %9 = load ptr, ptr %8, align 8, !tbaa !35
  store ptr %9, ptr %5, align 8, !tbaa !36
  call void @llvm.lifetime.start.p0(i64 4, ptr %6) #6
  %10 = load ptr, ptr %5, align 8, !tbaa !36
  %11 = getelementptr inbounds nuw %struct.obj_state_s, ptr %10, i32 0, i32 3
  %12 = load i32, ptr %11, align 8, !tbaa !75
  switch i32 %12, label %53 [
    i32 8, label %13
    i32 10, label %18
    i32 9, label %23
    i32 2, label %23
    i32 3, label %23
    i32 11, label %28
    i32 6, label %28
    i32 7, label %28
    i32 0, label %33
    i32 4, label %38
    i32 1, label %43
    i32 5, label %48
  ]

13:                                               ; preds = %1
  store ptr @.str.19, ptr %3, align 8, !tbaa !34
  store i32 1, ptr %6, align 4, !tbaa !40
  %14 = load ptr, ptr %5, align 8, !tbaa !36
  %15 = getelementptr inbounds nuw %struct.obj_state_s, ptr %14, i32 0, i32 2
  %16 = load ptr, ptr %15, align 8, !tbaa !37
  %17 = getelementptr inbounds nuw %struct.Agobj_s, ptr %16, i32 0, i32 0
  store ptr %17, ptr %4, align 8, !tbaa !41
  br label %59

18:                                               ; preds = %1
  store ptr @.str.19, ptr %3, align 8, !tbaa !34
  store i32 0, ptr %6, align 4, !tbaa !40
  %19 = load ptr, ptr %5, align 8, !tbaa !36
  %20 = getelementptr inbounds nuw %struct.obj_state_s, ptr %19, i32 0, i32 2
  %21 = load ptr, ptr %20, align 8, !tbaa !37
  %22 = getelementptr inbounds nuw %struct.Agobj_s, ptr %21, i32 0, i32 0
  store ptr %22, ptr %4, align 8, !tbaa !41
  br label %59

23:                                               ; preds = %1, %1, %1
  store ptr @.str.20, ptr %3, align 8, !tbaa !34
  store i32 1, ptr %6, align 4, !tbaa !40
  %24 = load ptr, ptr %5, align 8, !tbaa !36
  %25 = getelementptr inbounds nuw %struct.obj_state_s, ptr %24, i32 0, i32 2
  %26 = load ptr, ptr %25, align 8, !tbaa !37
  %27 = getelementptr inbounds nuw %struct.Agobj_s, ptr %26, i32 0, i32 0
  store ptr %27, ptr %4, align 8, !tbaa !41
  br label %59

28:                                               ; preds = %1, %1, %1
  store ptr @.str.20, ptr %3, align 8, !tbaa !34
  store i32 0, ptr %6, align 4, !tbaa !40
  %29 = load ptr, ptr %5, align 8, !tbaa !36
  %30 = getelementptr inbounds nuw %struct.obj_state_s, ptr %29, i32 0, i32 2
  %31 = load ptr, ptr %30, align 8, !tbaa !37
  %32 = getelementptr inbounds nuw %struct.Agobj_s, ptr %31, i32 0, i32 0
  store ptr %32, ptr %4, align 8, !tbaa !41
  br label %59

33:                                               ; preds = %1
  store ptr @.str.21, ptr %3, align 8, !tbaa !34
  store i32 1, ptr %6, align 4, !tbaa !40
  %34 = load ptr, ptr %5, align 8, !tbaa !36
  %35 = getelementptr inbounds nuw %struct.obj_state_s, ptr %34, i32 0, i32 2
  %36 = load ptr, ptr %35, align 8, !tbaa !37
  %37 = getelementptr inbounds nuw %struct.Agobj_s, ptr %36, i32 0, i32 0
  store ptr %37, ptr %4, align 8, !tbaa !41
  br label %59

38:                                               ; preds = %1
  store i32 0, ptr %6, align 4, !tbaa !40
  store ptr @.str.22, ptr %3, align 8, !tbaa !34
  %39 = load ptr, ptr %5, align 8, !tbaa !36
  %40 = getelementptr inbounds nuw %struct.obj_state_s, ptr %39, i32 0, i32 2
  %41 = load ptr, ptr %40, align 8, !tbaa !37
  %42 = getelementptr inbounds nuw %struct.Agobj_s, ptr %41, i32 0, i32 0
  store ptr %42, ptr %4, align 8, !tbaa !41
  br label %59

43:                                               ; preds = %1
  store ptr @.str.21, ptr %3, align 8, !tbaa !34
  store i32 1, ptr %6, align 4, !tbaa !40
  %44 = load ptr, ptr %5, align 8, !tbaa !36
  %45 = getelementptr inbounds nuw %struct.obj_state_s, ptr %44, i32 0, i32 2
  %46 = load ptr, ptr %45, align 8, !tbaa !37
  %47 = getelementptr inbounds nuw %struct.Agobj_s, ptr %46, i32 0, i32 0
  store ptr %47, ptr %4, align 8, !tbaa !41
  br label %59

48:                                               ; preds = %1
  store ptr @.str.21, ptr %3, align 8, !tbaa !34
  store i32 0, ptr %6, align 4, !tbaa !40
  %49 = load ptr, ptr %5, align 8, !tbaa !36
  %50 = getelementptr inbounds nuw %struct.obj_state_s, ptr %49, i32 0, i32 2
  %51 = load ptr, ptr %50, align 8, !tbaa !37
  %52 = getelementptr inbounds nuw %struct.Agobj_s, ptr %51, i32 0, i32 0
  store ptr %52, ptr %4, align 8, !tbaa !41
  br label %59

53:                                               ; preds = %1
  br label %54

54:                                               ; preds = %53
  %55 = load ptr, ptr @stderr, align 8, !tbaa !74
  %56 = call i32 (ptr, ptr, ...) @fprintf(ptr noundef %55, ptr noundef @.str.17, ptr noundef @.str.18, i32 noundef 100) #6
  call void @abort() #7
  unreachable

57:                                               ; No predecessors!
  br label %58

58:                                               ; preds = %57
  br label %59

59:                                               ; preds = %58, %48, %43, %38, %33, %28, %23, %18, %13
  %60 = load ptr, ptr %2, align 8, !tbaa !3
  %61 = load i32, ptr %6, align 4, !tbaa !40
  %62 = load ptr, ptr %3, align 8, !tbaa !34
  %63 = load ptr, ptr %4, align 8, !tbaa !41
  call void (ptr, ptr, ...) @gvprintf(ptr noundef %60, ptr noundef @.str.23, i32 noundef %61, ptr noundef %62, ptr noundef %63)
  call void @llvm.lifetime.end.p0(i64 4, ptr %6) #6
  call void @llvm.lifetime.end.p0(i64 8, ptr %5) #6
  call void @llvm.lifetime.end.p0(i64 8, ptr %4) #6
  call void @llvm.lifetime.end.p0(i64 8, ptr %3) #6
  ret void
}

; Function Attrs: nounwind uwtable
define internal void @tkgen_print_color(ptr noundef %0, ptr noundef byval(%struct.color_s) align 8 %1) #0 {
  %3 = alloca ptr, align 8
  store ptr %0, ptr %3, align 8, !tbaa !3
  %4 = getelementptr inbounds nuw %struct.color_s, ptr %1, i32 0, i32 1
  %5 = load i32, ptr %4, align 8, !tbaa !73
  switch i32 %5, label %35 [
    i32 4, label %6
    i32 1, label %11
  ]

6:                                                ; preds = %2
  %7 = load ptr, ptr %3, align 8, !tbaa !3
  %8 = getelementptr inbounds nuw %struct.color_s, ptr %1, i32 0, i32 0
  %9 = load ptr, ptr %8, align 8, !tbaa !37
  %10 = call i32 @gvputs(ptr noundef %7, ptr noundef %9)
  br label %40

11:                                               ; preds = %2
  %12 = getelementptr inbounds nuw %struct.color_s, ptr %1, i32 0, i32 0
  %13 = getelementptr inbounds [4 x i8], ptr %12, i64 0, i64 3
  %14 = load i8, ptr %13, align 1, !tbaa !37
  %15 = zext i8 %14 to i32
  %16 = icmp eq i32 %15, 0
  br i1 %16, label %17, label %20

17:                                               ; preds = %11
  %18 = load ptr, ptr %3, align 8, !tbaa !3
  %19 = call i32 @gvputs(ptr noundef %18, ptr noundef @.str.15)
  br label %34

20:                                               ; preds = %11
  %21 = load ptr, ptr %3, align 8, !tbaa !3
  %22 = getelementptr inbounds nuw %struct.color_s, ptr %1, i32 0, i32 0
  %23 = getelementptr inbounds [4 x i8], ptr %22, i64 0, i64 0
  %24 = load i8, ptr %23, align 8, !tbaa !37
  %25 = zext i8 %24 to i32
  %26 = getelementptr inbounds nuw %struct.color_s, ptr %1, i32 0, i32 0
  %27 = getelementptr inbounds [4 x i8], ptr %26, i64 0, i64 1
  %28 = load i8, ptr %27, align 1, !tbaa !37
  %29 = zext i8 %28 to i32
  %30 = getelementptr inbounds nuw %struct.color_s, ptr %1, i32 0, i32 0
  %31 = getelementptr inbounds [4 x i8], ptr %30, i64 0, i64 2
  %32 = load i8, ptr %31, align 2, !tbaa !37
  %33 = zext i8 %32 to i32
  call void (ptr, ptr, ...) @gvprintf(ptr noundef %21, ptr noundef @.str.16, i32 noundef %25, i32 noundef %29, i32 noundef %33)
  br label %34

34:                                               ; preds = %20, %17
  br label %40

35:                                               ; preds = %2
  br label %36

36:                                               ; preds = %35
  %37 = load ptr, ptr @stderr, align 8, !tbaa !74
  %38 = call i32 (ptr, ptr, ...) @fprintf(ptr noundef %37, ptr noundef @.str.17, ptr noundef @.str.18, i32 noundef 43) #6
  call void @abort() #7
  unreachable

39:                                               ; No predecessors!
  br label %40

40:                                               ; preds = %39, %34, %6
  ret void
}

; Function Attrs: nounwind uwtable
define internal void @tkgen_canvas(ptr noundef %0) #0 {
  %2 = alloca ptr, align 8
  %3 = alloca ptr, align 8
  store ptr %0, ptr %2, align 8, !tbaa !3
  %4 = load ptr, ptr %2, align 8, !tbaa !3
  %5 = getelementptr inbounds nuw %struct.GVJ_s, ptr %4, i32 0, i32 24
  %6 = load i8, ptr %5, align 8, !tbaa !66, !range !67, !noundef !68
  %7 = trunc i8 %6 to i1
  br i1 %7, label %8, label %17

8:                                                ; preds = %1
  call void @llvm.lifetime.start.p0(i64 8, ptr %3) #6
  %9 = load ptr, ptr %2, align 8, !tbaa !3
  %10 = getelementptr inbounds nuw %struct.GVJ_s, ptr %9, i32 0, i32 23
  %11 = load ptr, ptr %10, align 8, !tbaa !69
  store ptr %11, ptr %3, align 8, !tbaa !41
  %12 = load ptr, ptr %2, align 8, !tbaa !3
  %13 = load ptr, ptr %3, align 8, !tbaa !41
  %14 = getelementptr inbounds nuw %struct.tcldot_context_t, ptr %13, i32 0, i32 0
  %15 = load ptr, ptr %14, align 8, !tbaa !70
  %16 = call i32 @gvputs(ptr noundef %12, ptr noundef %15)
  call void @llvm.lifetime.end.p0(i64 8, ptr %3) #6
  br label %20

17:                                               ; preds = %1
  %18 = load ptr, ptr %2, align 8, !tbaa !3
  %19 = call i32 @gvputs(ptr noundef %18, ptr noundef @.str.14)
  br label %20

20:                                               ; preds = %17, %8
  ret void
}

; Function Attrs: nounwind uwtable
define internal void @tkgen_polygon(ptr noundef %0, ptr noundef %1, i64 noundef %2, i32 noundef %3) #0 {
  %5 = alloca ptr, align 8
  %6 = alloca ptr, align 8
  %7 = alloca i64, align 8
  %8 = alloca i32, align 4
  %9 = alloca ptr, align 8
  store ptr %0, ptr %5, align 8, !tbaa !3
  store ptr %1, ptr %6, align 8, !tbaa !62
  store i64 %2, ptr %7, align 8, !tbaa !65
  store i32 %3, ptr %8, align 4, !tbaa !40
  call void @llvm.lifetime.start.p0(i64 8, ptr %9) #6
  %10 = load ptr, ptr %5, align 8, !tbaa !3
  %11 = getelementptr inbounds nuw %struct.GVJ_s, ptr %10, i32 0, i32 4
  %12 = load ptr, ptr %11, align 8, !tbaa !35
  store ptr %12, ptr %9, align 8, !tbaa !36
  %13 = load ptr, ptr %9, align 8, !tbaa !36
  %14 = getelementptr inbounds nuw %struct.obj_state_s, ptr %13, i32 0, i32 9
  %15 = load i32, ptr %14, align 8, !tbaa !42
  %16 = icmp ne i32 %15, 0
  br i1 %16, label %17, label %77

17:                                               ; preds = %4
  %18 = load ptr, ptr %5, align 8, !tbaa !3
  call void @tkgen_canvas(ptr noundef %18)
  %19 = load ptr, ptr %5, align 8, !tbaa !3
  %20 = call i32 @gvputs(ptr noundef %19, ptr noundef @.str.31)
  %21 = load ptr, ptr %5, align 8, !tbaa !3
  %22 = load ptr, ptr %6, align 8, !tbaa !62
  %23 = load i64, ptr %7, align 8, !tbaa !65
  call void @gvprintpointflist(ptr noundef %21, ptr noundef %22, i64 noundef %23)
  %24 = load ptr, ptr %5, align 8, !tbaa !3
  %25 = call i32 @gvputs(ptr noundef %24, ptr noundef @.str.25)
  %26 = load i32, ptr %8, align 4, !tbaa !40
  %27 = icmp ne i32 %26, 0
  br i1 %27, label %28, label %32

28:                                               ; preds = %17
  %29 = load ptr, ptr %5, align 8, !tbaa !3
  %30 = load ptr, ptr %9, align 8, !tbaa !36
  %31 = getelementptr inbounds nuw %struct.obj_state_s, ptr %30, i32 0, i32 5
  call void @tkgen_print_color(ptr noundef %29, ptr noundef byval(%struct.color_s) align 8 %31)
  br label %42

32:                                               ; preds = %17
  %33 = load i32, ptr @first_periphery, align 4, !tbaa !40
  %34 = icmp ne i32 %33, 0
  br i1 %34, label %35, label %38

35:                                               ; preds = %32
  %36 = load ptr, ptr %5, align 8, !tbaa !3
  %37 = call i32 @gvputs(ptr noundef %36, ptr noundef @.str.26)
  br label %41

38:                                               ; preds = %32
  %39 = load ptr, ptr %5, align 8, !tbaa !3
  %40 = call i32 @gvputs(ptr noundef %39, ptr noundef @.str.15)
  br label %41

41:                                               ; preds = %38, %35
  br label %42

42:                                               ; preds = %41, %28
  %43 = load i32, ptr @first_periphery, align 4, !tbaa !40
  %44 = icmp eq i32 %43, 1
  br i1 %44, label %45, label %46

45:                                               ; preds = %42
  store i32 0, ptr @first_periphery, align 4, !tbaa !40
  br label %46

46:                                               ; preds = %45, %42
  %47 = load ptr, ptr %5, align 8, !tbaa !3
  %48 = call i32 @gvputs(ptr noundef %47, ptr noundef @.str.27)
  %49 = load ptr, ptr %5, align 8, !tbaa !3
  %50 = load ptr, ptr %9, align 8, !tbaa !36
  %51 = getelementptr inbounds nuw %struct.obj_state_s, ptr %50, i32 0, i32 11
  %52 = load double, ptr %51, align 8, !tbaa !64
  call void @gvprintdouble(ptr noundef %49, double noundef %52)
  %53 = load ptr, ptr %5, align 8, !tbaa !3
  %54 = call i32 @gvputs(ptr noundef %53, ptr noundef @.str.28)
  %55 = load ptr, ptr %5, align 8, !tbaa !3
  %56 = load ptr, ptr %9, align 8, !tbaa !36
  %57 = getelementptr inbounds nuw %struct.obj_state_s, ptr %56, i32 0, i32 4
  call void @tkgen_print_color(ptr noundef %55, ptr noundef byval(%struct.color_s) align 8 %57)
  %58 = load ptr, ptr %9, align 8, !tbaa !36
  %59 = getelementptr inbounds nuw %struct.obj_state_s, ptr %58, i32 0, i32 9
  %60 = load i32, ptr %59, align 8, !tbaa !42
  %61 = icmp eq i32 %60, 1
  br i1 %61, label %62, label %65

62:                                               ; preds = %46
  %63 = load ptr, ptr %5, align 8, !tbaa !3
  %64 = call i32 @gvputs(ptr noundef %63, ptr noundef @.str.29)
  br label %65

65:                                               ; preds = %62, %46
  %66 = load ptr, ptr %9, align 8, !tbaa !36
  %67 = getelementptr inbounds nuw %struct.obj_state_s, ptr %66, i32 0, i32 9
  %68 = load i32, ptr %67, align 8, !tbaa !42
  %69 = icmp eq i32 %68, 2
  br i1 %69, label %70, label %73

70:                                               ; preds = %65
  %71 = load ptr, ptr %5, align 8, !tbaa !3
  %72 = call i32 @gvputs(ptr noundef %71, ptr noundef @.str.30)
  br label %73

73:                                               ; preds = %70, %65
  %74 = load ptr, ptr %5, align 8, !tbaa !3
  call void @tkgen_print_tags(ptr noundef %74)
  %75 = load ptr, ptr %5, align 8, !tbaa !3
  %76 = call i32 @gvputs(ptr noundef %75, ptr noundef @.str.13)
  br label %77

77:                                               ; preds = %73, %4
  call void @llvm.lifetime.end.p0(i64 8, ptr %9) #6
  ret void
}