; Function Attrs: nounwind uwtable
define internal void @tkgen_polygon(ptr noundef %0, ptr noundef %1, i64 noundef %2, i32 noundef %3) #0 {
  %5 = getelementptr inbounds nuw i8, ptr %0, i64 32
  %6 = load ptr, ptr %5, align 8, !tbaa !34
  %7 = getelementptr inbounds nuw i8, ptr %6, i64 168
  %8 = load i32, ptr %7, align 8, !tbaa !39
  %.not = icmp eq i32 %8, 0
  br i1 %.not, label %91, label %9

9:                                                ; preds = %4
  %10 = getelementptr inbounds nuw i8, ptr %0, i64 264
  %11 = load i8, ptr %10, align 8, !tbaa !50, !range !51, !noundef !52
  %12 = trunc nuw i8 %11 to i1
  br i1 %12, label %13, label %tkgen_canvas.exit

13:                                               ; preds = %9
  %14 = getelementptr inbounds nuw i8, ptr %0, i64 256
  %15 = load ptr, ptr %14, align 8, !tbaa !53
  %16 = load ptr, ptr %15, align 8, !tbaa !54
  br label %tkgen_canvas.exit

tkgen_canvas.exit:                                ; preds = %9, %13
  %.str.14.sink.i = phi ptr [ %16, %13 ], [ @.str.14, %9 ]
  %17 = tail call i32 @gvputs(ptr noundef nonnull %0, ptr noundef %.str.14.sink.i) #6
  %18 = tail call i32 @gvputs(ptr noundef nonnull %0, ptr noundef nonnull @.str.31) #6
  tail call void @gvprintpointflist(ptr noundef nonnull %0, ptr noundef %1, i64 noundef %2) #6
  %19 = tail call i32 @gvputs(ptr noundef nonnull %0, ptr noundef nonnull @.str.25) #6
  %.not24 = icmp eq i32 %3, 0
  br i1 %.not24, label %39, label %20

20:                                               ; preds = %tkgen_canvas.exit
  %21 = getelementptr inbounds nuw i8, ptr %6, i64 72
  %.sroa.0.0.copyload = load ptr, ptr %21, align 1
  %.sroa.828.0..sroa_idx = getelementptr inbounds nuw i8, ptr %6, i64 104
  %.sroa.828.0.copyload = load i32, ptr %.sroa.828.0..sroa_idx, align 1
  switch i32 %.sroa.828.0.copyload, label %36 [
    i32 4, label %22
    i32 1, label %24
  ]

22:                                               ; preds = %20
  %23 = tail call i32 @gvputs(ptr noundef nonnull %0, ptr noundef %.sroa.0.0.copyload) #6
  br label %tkgen_print_color.exit

24:                                               ; preds = %20
  %25 = ptrtoint ptr %.sroa.0.0.copyload to i64
  %26 = and i64 %25, 4278190080
  %27 = icmp eq i64 %26, 0
  br i1 %27, label %28, label %30

28:                                               ; preds = %24
  %29 = tail call i32 @gvputs(ptr noundef nonnull %0, ptr noundef nonnull @.str.15) #6
  br label %tkgen_print_color.exit

30:                                               ; preds = %24
  %.sroa.0.0.extract.trunc = trunc i64 %25 to i32
  %31 = and i32 %.sroa.0.0.extract.trunc, 255
  %32 = lshr i32 %.sroa.0.0.extract.trunc, 8
  %33 = and i32 %32, 255
  %34 = lshr i32 %.sroa.0.0.extract.trunc, 16
  %35 = and i32 %34, 255
  tail call void (ptr, ptr, ...) @gvprintf(ptr noundef nonnull %0, ptr noundef nonnull @.str.16, i32 noundef %31, i32 noundef %33, i32 noundef %35) #6
  br label %tkgen_print_color.exit

36:                                               ; preds = %20
  %37 = load ptr, ptr @stderr, align 8, !tbaa !58
  %38 = tail call i32 (ptr, ptr, ...) @fprintf(ptr noundef %37, ptr noundef nonnull @.str.17, ptr noundef nonnull @.str.18, i32 noundef 43) #7
  tail call void @abort() #8
  unreachable

39:                                               ; preds = %tkgen_canvas.exit
  %40 = load i32, ptr @first_periphery, align 4, !tbaa !38
  %.not25 = icmp eq i32 %40, 0
  br i1 %.not25, label %43, label %41

41:                                               ; preds = %39
  %42 = tail call i32 @gvputs(ptr noundef nonnull %0, ptr noundef nonnull @.str.26) #6
  br label %tkgen_print_color.exit

43:                                               ; preds = %39
  %44 = tail call i32 @gvputs(ptr noundef nonnull %0, ptr noundef nonnull @.str.15) #6
  br label %tkgen_print_color.exit

tkgen_print_color.exit:                           ; preds = %30, %28, %22, %41, %43
  %45 = load i32, ptr @first_periphery, align 4, !tbaa !38
  %46 = icmp eq i32 %45, 1
  br i1 %46, label %47, label %48

47:                                               ; preds = %tkgen_print_color.exit
  store i32 0, ptr @first_periphery, align 4, !tbaa !38
  br label %48

48:                                               ; preds = %47, %tkgen_print_color.exit
  %49 = tail call i32 @gvputs(ptr noundef nonnull %0, ptr noundef nonnull @.str.27) #6
  %50 = getelementptr inbounds nuw i8, ptr %6, i64 176
  %51 = load double, ptr %50, align 8, !tbaa !64
  tail call void @gvprintdouble(ptr noundef nonnull %0, double noundef %51) #6
  %52 = tail call i32 @gvputs(ptr noundef nonnull %0, ptr noundef nonnull @.str.28) #6
  %53 = getelementptr inbounds nuw i8, ptr %6, i64 32
  %.sroa.029.0.copyload = load ptr, ptr %53, align 1
  %.sroa.832.0..sroa_idx = getelementptr inbounds nuw i8, ptr %6, i64 64
  %.sroa.832.0.copyload = load i32, ptr %.sroa.832.0..sroa_idx, align 1
  switch i32 %.sroa.832.0.copyload, label %68 [
    i32 4, label %54
    i32 1, label %56
  ]

54:                                               ; preds = %48
  %55 = tail call i32 @gvputs(ptr noundef nonnull %0, ptr noundef %.sroa.029.0.copyload) #6
  br label %tkgen_print_color.exit26

56:                                               ; preds = %48
  %57 = ptrtoint ptr %.sroa.029.0.copyload to i64
  %58 = and i64 %57, 4278190080
  %59 = icmp eq i64 %58, 0
  br i1 %59, label %60, label %62

60:                                               ; preds = %56
  %61 = tail call i32 @gvputs(ptr noundef nonnull %0, ptr noundef nonnull @.str.15) #6
  br label %tkgen_print_color.exit26

62:                                               ; preds = %56
  %.sroa.029.0.extract.trunc = trunc i64 %57 to i32
  %63 = and i32 %.sroa.029.0.extract.trunc, 255
  %64 = lshr i32 %.sroa.029.0.extract.trunc, 8
  %65 = and i32 %64, 255
  %66 = lshr i32 %.sroa.029.0.extract.trunc, 16
  %67 = and i32 %66, 255
  tail call void (ptr, ptr, ...) @gvprintf(ptr noundef nonnull %0, ptr noundef nonnull @.str.16, i32 noundef %63, i32 noundef %65, i32 noundef %67) #6
  br label %tkgen_print_color.exit26

68:                                               ; preds = %48
  %69 = load ptr, ptr @stderr, align 8, !tbaa !58
  %70 = tail call i32 (ptr, ptr, ...) @fprintf(ptr noundef %69, ptr noundef nonnull @.str.17, ptr noundef nonnull @.str.18, i32 noundef 43) #7
  tail call void @abort() #8
  unreachable

tkgen_print_color.exit26:                         ; preds = %54, %60, %62
  %71 = load i32, ptr %7, align 8, !tbaa !39
  %72 = icmp eq i32 %71, 1
  br i1 %72, label %73, label %75

73:                                               ; preds = %tkgen_print_color.exit26
  %74 = tail call i32 @gvputs(ptr noundef nonnull %0, ptr noundef nonnull @.str.29) #6
  %.pr = load i32, ptr %7, align 8, !tbaa !39
  br label %75

75:                                               ; preds = %73, %tkgen_print_color.exit26
  %76 = phi i32 [ %.pr, %73 ], [ %71, %tkgen_print_color.exit26 ]
  %77 = icmp eq i32 %76, 2
  br i1 %77, label %78, label %80

78:                                               ; preds = %75
  %79 = tail call i32 @gvputs(ptr noundef nonnull %0, ptr noundef nonnull @.str.30) #6
  br label %80

80:                                               ; preds = %78, %75
  %81 = load ptr, ptr %5, align 8, !tbaa !34
  %82 = getelementptr inbounds nuw i8, ptr %81, i64 24
  %83 = load i32, ptr %82, align 8, !tbaa !61
  %84 = icmp ult i32 %83, 12
  br i1 %84, label %switch.lookup, label %85

85:                                               ; preds = %80
  %86 = load ptr, ptr @stderr, align 8, !tbaa !58
  %87 = tail call i32 (ptr, ptr, ...) @fprintf(ptr noundef %86, ptr noundef nonnull @.str.17, ptr noundef nonnull @.str.18, i32 noundef 100) #7
  tail call void @abort() #8
  unreachable

switch.lookup:                                    ; preds = %80
  %88 = zext nneg i32 %83 to i64
  %switch.gep = getelementptr inbounds nuw [12 x ptr], ptr @switch.table.tkgen_polyline, i64 0, i64 %88
  %switch.load = load ptr, ptr %switch.gep, align 8
  %89 = zext nneg i32 %83 to i64
  %switch.gep34 = getelementptr inbounds nuw [12 x i32], ptr @switch.table.tkgen_polyline.5, i64 0, i64 %89
  %switch.load35 = load i32, ptr %switch.gep34, align 4
  %.014.in.i = getelementptr inbounds nuw i8, ptr %81, i64 16
  %.014.i = load ptr, ptr %.014.in.i, align 8, !tbaa !35
  tail call void (ptr, ptr, ...) @gvprintf(ptr noundef nonnull %0, ptr noundef nonnull @.str.23, i32 noundef %switch.load35, ptr noundef nonnull %switch.load, ptr noundef %.014.i) #6
  %90 = tail call i32 @gvputs(ptr noundef nonnull %0, ptr noundef nonnull @.str.13) #6
  br label %91

91:                                               ; preds = %switch.lookup, %4
  ret void
}